; Function Attrs: mustprogress uwtable
define noundef nonnull align 8 dereferenceable(104) ptr @_ZN3nix5Store8getStatsEv(ptr noundef nonnull align 8 dereferenceable(264) %0) local_unnamed_addr #5 align 2 personality ptr @__gxx_personality_v0 {
  %2 = getelementptr inbounds i8, ptr %0, i64 24
  %3 = tail call noundef i32 @pthread_mutex_lock(ptr noundef nonnull %2) #31, !noalias !179
  %.not.i.i.i.i.i = icmp eq i32 %3, 0
  br i1 %.not.i.i.i.i.i, label %_ZN3nix4SyncINS_5Store5StateESt5mutexE4LockD2Ev.exit, label %4

4:                                                ; preds = %1
  tail call void @_ZSt20__throw_system_errori(i32 noundef %3) #32, !noalias !179
  unreachable

_ZN3nix4SyncINS_5Store5StateESt5mutexE4LockD2Ev.exit: ; preds = %1
  %5 = getelementptr inbounds i8, ptr %0, i64 112
  %6 = load i64, ptr %5, align 8
  %7 = getelementptr inbounds i8, ptr %0, i64 160
  %8 = getelementptr inbounds i8, ptr %0, i64 192
  store atomic i64 %6, ptr %8 seq_cst, align 8
  %9 = tail call noundef i32 @pthread_mutex_unlock(ptr noundef nonnull %2) #31
  ret ptr %7
}